; Function Attrs: mustprogress uwtable
define noundef i32 @_ZN3zmq8stream_t11xsetsockoptEiPKvm(ptr noundef nonnull align 8 dereferenceable(2112) %0, i32 noundef %1, ptr noundef %2, i64 noundef %3) unnamed_addr #0 align 2 {
  %cond = icmp eq i32 %1, 73
  br i1 %cond, label %5, label %8

5:                                                ; preds = %4
  %6 = getelementptr inbounds nuw i8, ptr %0, i64 396
  %7 = tail call noundef i32 @_ZN3zmq32do_setsockopt_int_as_bool_strictEPKvmPb(ptr noundef %2, i64 noundef %3, ptr noundef nonnull %6)
  br label %10

8:                                                ; preds = %4
  %9 = tail call noundef i32 @_ZN3zmq21routing_socket_base_t11xsetsockoptEiPKvm(ptr noundef nonnull align 8 dereferenceable(1912) %0, i32 noundef %1, ptr noundef %2, i64 noundef %3)
  br label %10

10:                                               ; preds = %8, %5
  %.0 = phi i32 [ %7, %5 ], [ %9, %8 ]
  ret i32 %.0
}